(dp0
S'redvasily/django-emailauth'
p1
(dp2
S'fork'
p3
I00
sS'has_wiki'
p4
I01
sS'description'
p5
VDjango application for email-based authentication
p6
sS'language'
p7
VPython
p8
sS'has_downloads'
p9
I01
sS'url'
p10
Vhttps://github.com/redvasily/django-emailauth
p11
sS'created_at'
p12
cdatetime
datetime
p13
(S'\x07\xd9\x04\x1e\t(;\x00\x00\x00'
p14
tp15
Rp16
sS'private'
p17
I00
sS'name'
p18
Vdjango-emailauth
p19
sS'pushed_at'
p20
g13
(S'\x07\xda\x08\x1d\x04\x10\n\x00\x00\x00'
p21
tp22
Rp23
sS'owner'
p24
Vredvasily
p25
sS'watchers'
p26
I38
sS'open_issues'
p27
I3
sS'has_issues'
p28
I01
sS'forks'
p29
I11
sS'homepage'
p30
V
p31
sS'size'
p32
I2023
ssS'marinho/hippocampus'
p33
(dp34
g3
I00
sg4
I01
sg5
g31
sg7
VPython
p35
sg9
I01
sg10
Vhttps://github.com/marinho/hippocampus
p36
sg12
g13
(S'\x07\xda\x0c\x1b\x03,\x1e\x00\x00\x00'
p37
tp38
Rp39
sg17
I00
sg18
Vhippocampus
p40
sg20
g13
(S'\x07\xdb\x01\x06\x0270\x00\x00\x00'
p41
tp42
Rp43
sg24
Vmarinho
p44
sg26
I1
sg27
I0
sg28
I01
sg29
I1
sg30
g31
sg32
I840
ssS'asciimoo/f33dme'
p45
(dp46
g3
I00
sg4
I01
sg5
Vminimalist feed reader based on django
p47
sg7
VPython
p48
sg9
I01
sg10
Vhttps://github.com/asciimoo/f33dme
p49
sg12
g13
(S'\x07\xdb\x02\x0e\x06\x0f6\x00\x00\x00'
p50
tp51
Rp52
sg17
I00
sg18
Vf33dme
p53
sg20
g13
(S'\x07\xdb\n\x18\x01\x14\x06\x00\x00\x00'
p54
tp55
Rp56
sg24
Vasciimoo
p57
sg26
I7
sg27
I0
sg28
I01
sg29
I6
sg30
g31
sg32
I240
ssS'nathforge/qdj'
p58
(dp59
g3
I00
sg4
I01
sg5
VQDJ is 'django-admin.py startproject', but with your own project templates. The project starter for obsessives with deadlines.
p60
sg7
VPython
p61
sg9
I01
sg10
Vhttps://github.com/nathforge/qdj
p62
sg12
g13
(S'\x07\xdb\n\x12\x03\x1b8\x00\x00\x00'
p63
tp64
Rp65
sg17
I00
sg18
Vqdj
p66
sg20
g13
(S'\x07\xdb\n\x13\x03$/\x00\x00\x00'
p67
tp68
Rp69
sg24
Vnathforge
p70
sg26
I6
sg27
I0
sg28
I01
sg29
I2
sg30
Vhttp://pypi.python.org/pypi/qdj
p71
sg32
I412
ssS'sayanee/My-First-Django-Project'
p72
(dp73
g3
I00
sg4
I01
sg5
g31
sg7
VPython
p74
sg9
I01
sg10
Vhttps://github.com/sayanee/My-First-Django-Project
p75
sg12
g13
(S'\x07\xdb\x08\x13\x17\x1b$\x00\x00\x00'
p76
tp77
Rp78
sg17
I00
sg18
VMy-First-Django-Project
p79
sg20
g13
(S'\x07\xdb\x08\x1b\x01\x141\x00\x00\x00'
p80
tp81
Rp82
sg24
Vsayanee
p83
sg26
I1
sg27
I0
sg28
I01
sg29
I1
sg30
g31
sg32
I172
ssS'ccnmtl/Diabeaters'
p84
(dp85
g3
I00
sg4
I01
sg5
g31
sg7
VJavaScript
p86
sg9
I01
sg10
Vhttps://github.com/ccnmtl/Diabeaters
p87
sg12
g13
(S'\x07\xdb\x04\x1d\x08)!\x00\x00\x00'
p88
tp89
Rp90
sg17
I00
sg18
VDiabeaters
p91
sg20
g13
(S'\x07\xdb\x06\x11\x0f\x1e\x18\x00\x00\x00'
p92
tp93
Rp94
sg24
Vccnmtl
p95
sg26
I2
sg27
I0
sg28
I01
sg29
I2
sg30
g31
sg32
I120
ssS'chadpaulson/django-clortho'
p96
(dp97
g3
I00
sg4
I01
sg5
VSocial Auth, Keymaster of Django.
p98
sg7
VPython
p99
sg9
I01
sg10
Vhttps://github.com/chadpaulson/django-clortho
p100
sg12
g13
(S'\x07\xda\x04\x1e\x16-\x19\x00\x00\x00'
p101
tp102
Rp103
sg17
I00
sg18
Vdjango-clortho
p104
sg20
g13
(S"\x07\xdb\x0b\x15\x0e'*\x00\x00\x00"
p105
tp106
Rp107
sg24
Vchadpaulson
p108
sg26
I22
sg27
I0
sg28
I01
sg29
I5
sg30
g31
sg32
I116
ssS'bholley/rainbeard'
p109
(dp110
g3
I00
sg4
I01
sg5
VNext Generation Trust Network
p111
sg7
VPython
p112
sg9
I01
sg10
Vhttps://github.com/bholley/rainbeard
p113
sg12
g13
(S'\x07\xdb\x06\x14\x17; \x00\x00\x00'
p114
tp115
Rp116
sg17
I00
sg18
Vrainbeard
p117
sg20
g13
(S'\x07\xdb\n\x0c\x11\x175\x00\x00\x00'
p118
tp119
Rp120
sg24
Vbholley
p121
sg26
I5
sg27
I2
sg28
I01
sg29
I4
sg30
Vhttp://raincode.org/
p122
sg32
I180
ssS'codeforamerica/open311dashboard'
p123
(dp124
g3
I00
sg4
I01
sg5
VVisualizing and analyzing Open311 data on one unified, customizable dashboard
p125
sg7
VPython
p126
sg9
I01
sg10
Vhttps://github.com/codeforamerica/open311dashboard
p127
sg12
g13
(S'\x07\xdb\x03\x04\x0e8\x1c\x00\x00\x00'
p128
tp129
Rp130
sg17
I00
sg18
Vopen311dashboard
p131
sg20
g13
(S'\x07\xdb\n\n\x16\x17$\x00\x00\x00'
p132
tp133
Rp134
sg24
Vcodeforamerica
p135
sg26
I39
sg28
I01
sg27
I4
sS'organization'
p136
Vcodeforamerica
p137
sg29
I12
sg30
Vhttp://codeforamerica.org/?cfa_project=open311-dashboard
p138
sg32
I276
ssS'nicodenboer/django_regex'
p139
(dp140
g3
I00
sg4
I01
sg5
VSmall django app to test regexes locally. Convenient, but mostly interesting because the project demonstrates some Django topics
p141
sg7
VPython
p142
sg9
I01
sg10
Vhttps://github.com/nicodenboer/django_regex
p143
sg12
g13
(S'\x07\xdb\t\x1d\x04*+\x00\x00\x00'
p144
tp145
Rp146
sg17
I00
sg18
Vdjango_regex
p147
sg20
g13
(S'\x07\xdb\n\x10\x02\t\x11\x00\x00\x00'
p148
tp149
Rp150
sg24
Vnicodenboer
p151
sg26
I2
sg27
I0
sg28
I01
sg29
I1
sg30
g31
sg32
I312
ssS'johnboxall/django-paypal'
p152
(dp153
g3
I00
sg4
I00
sg5
VA pluggable Django application for integrating PayPal Payments Standard or Payments Pro
p154
sg7
VPython
p155
sg9
I00
sg10
Vhttps://github.com/johnboxall/django-paypal
p156
sg12
g13
(S'\x07\xd9\x02\x01\x0e\x11\x1f\x00\x00\x00'
p157
tp158
Rp159
sg17
I00
sg18
Vdjango-paypal
p160
sg20
g13
(S'\x07\xdb\x0b\x01\x12/\x13\x00\x00\x00'
p161
tp162
Rp163
sg24
Vjohnboxall
p164
sg26
I459
sg27
I39
sg28
I01
sg29
I137
sg30
g31
sg32
I3072
ssS'chrisdickinson/django-bluebird'
p165
(dp166
g3
I00
sg4
I01
sg5
VA Twitter OAuth multi-site authentication backend for Django, and so much more
p167
sg7
VPython
p168
sg9
I01
sg10
Vhttps://github.com/chrisdickinson/django-bluebird
p169
sg12
g13
(S'\x07\xda\x02\x0e\x10\x13\x15\x00\x00\x00'
p170
tp171
Rp172
sg17
I00
sg18
Vdjango-bluebird
p173
sg20
g13
(S'\x07\xda\x08\x0e\x0c"\x1d\x00\x00\x00'
p174
tp175
Rp176
sg24
Vchrisdickinson
p177
sg26
I9
sg27
I0
sg28
I01
sg29
I1
sg30
g31
sg32
I404
ssS'redsolution/django-tinymce-attachment'
p178
(dp179
g3
I00
sg4
I01
sg5
VMakes attachments to objects and register them in TinyMCE
p180
sg7
VPython
p181
sg9
I01
sg10
Vhttps://github.com/redsolution/django-tinymce-attachment
p182
sg12
g13
(S'\x07\xda\x07\x10\x05!.\x00\x00\x00'
p183
tp184
Rp185
sg17
I00
sg18
Vdjango-tinymce-attachment
p186
sg20
g13
(S'\x07\xdb\t\x1d\x15\x147\x00\x00\x00'
p187
tp188
Rp189
sg24
Vredsolution
p190
sg26
I5
sg28
I01
sg27
I3
sg136
Vredsolution
p191
sg29
I1
sg30
g31
sg32
I1620
ssS'dokterbob/woningnet'
p192
(dp193
g3
I00
sg4
I01
sg5
VDjango scraper for Woningnet
p194
sg7
VPython
p195
sg9
I01
sg10
Vhttps://github.com/dokterbob/woningnet
p196
sg12
g13
(S'\x07\xdb\x02\t\x04#!\x00\x00\x00'
p197
tp198
Rp199
sg17
I00
sg18
Vwoningnet
p200
sg20
g13
(S'\x07\xdb\x02\t\x040\x10\x00\x00\x00'
p201
tp202
Rp203
sg24
Vdokterbob
p204
sg26
I2
sg27
I0
sg28
I01
sg29
I1
sg30
g31
sg32
I676
ssS'elcodo/django-registration-invitationcode-backend'
p205
(dp206
g3
I00
sg4
I01
sg5
VRegister using valid invitation code backend for django-registration
p207
sg9
I01
sg10
Vhttps://github.com/elcodo/django-registration-invitationcode-backend
p208
sg12
g13
(S'\x07\xda\x07\x0e\x01\x028\x00\x00\x00'
p209
tp210
Rp211
sg17
I00
sg18
Vdjango-registration-invitationcode-backend
p212
sg20
g13
(S'\x07\xda\x07\x0e\x02\x0e\x16\x00\x00\x00'
p213
tp214
Rp215
sg24
Velcodo
p216
sg26
I12
sg28
I01
sg27
I1
sg136
Velcodo
p217
sg29
I1
sg30
Vhttp://elcodo.pl
p218
sg32
I92
ssS'sayamindu/pathagar'
p219
(dp220
g3
I00
sg4
I01
sg5
VPathagar is a simple bookserver serving OPDS feeds
p221
sg7
VPython
p222
sg9
I01
sg10
Vhttps://github.com/sayamindu/pathagar
p223
sg12
g13
(S'\x07\xda\x05\n\x04;.\x00\x00\x00'
p224
tp225
Rp226
sg17
I00
sg18
Vpathagar
p227
sg20
g13
(S'\x07\xda\x05\x1e\x05*8\x00\x00\x00'
p228
tp229
Rp230
sg24
Vsayamindu
p231
sg26
I14
sg27
I0
sg28
I01
sg29
I9
sg30
g31
sg32
I2832
ssS'mzdaniel/test'
p232
(dp233
g3
I00
sg4
I01
sg5
Vtest
p234
sg9
I01
sg10
Vhttps://github.com/mzdaniel/test
p235
sg12
g13
(S'\x07\xda\x07\x11\x0b0$\x00\x00\x00'
p236
tp237
Rp238
sg17
I00
sg18
Vtest
p239
sg20
g13
(S'\x07\xda\x07\x11\x0b8\x0b\x00\x00\x00'
p240
tp241
Rp242
sg24
Vmzdaniel
p243
sg26
I1
sg27
I0
sg28
I01
sg29
I1
sg30
g31
sg32
I92
ssS'gabrielfalcao/djangogevent'
p244
(dp245
g3
I00
sg4
I01
sg5
VDjango GEvent support
p246
sg7
VPython
p247
sg9
I01
sg10
Vhttps://github.com/gabrielfalcao/djangogevent
p248
sg12
g13
(S'\x07\xdb\x04\x15\x06).\x00\x00\x00'
p249
tp250
Rp251
sg17
I00
sg18
Vdjangogevent
p252
sg20
g13
(S'\x07\xdb\x04\x19\x15\x14\x03\x00\x00\x00'
p253
tp254
Rp255
sg24
Vgabrielfalcao
p256
sg26
I1
sg27
I0
sg28
I01
sg29
I1
sg30
g31
sg32
I484
ssS'fwenzel/mdn'
p257
(dp258
g3
I00
sg4
I00
sg5
VNOTE: The Mozilla Developer Network codebase is now available under github.com/mozilla/kuma.
p259
sg7
VPHP
p260
sg9
I00
sg10
Vhttps://github.com/fwenzel/mdn
p261
sg12
g13
(S'\x07\xda\x06\x17\x00  \x00\x00\x00'
p262
tp263
Rp264
sg17
I00
sg18
Vmdn
p265
sg20
g13
(S'\x07\xdb\x05\x19\x05\x00\x15\x00\x00\x00'
p266
tp267
Rp268
sg24
Vfwenzel
p269
sg26
I10
sg27
I0
sg28
I01
sg29
I7
sg30
Vhttps://github.com/mozilla/kuma
p270
sg32
I728
ssS'ricobl/django-template-inspector'
p271
(dp272
g3
I00
sg4
I01
sg5
VExtract information from django templates
p273
sg7
VPython
p274
sg9
I01
sg10
Vhttps://github.com/ricobl/django-template-inspector
p275
sg12
g13
(S'\x07\xda\x08\x02\x052\x0f\x00\x00\x00'
p276
tp277
Rp278
sg17
I00
sg18
Vdjango-template-inspector
p279
sg20
g13
(S'\x07\xdb\x06\t\x13$\x00\x00\x00\x00'
p280
tp281
Rp282
sg24
Vricobl
p283
sg26
I6
sg27
I9
sg28
I01
sg29
I2
sg30
g31
sg32
I124
ssS'palewire/nicar2011'
p284
(dp285
g3
I00
sg4
I01
sg5
VAn example Django app
p286
sg9
I01
sg10
Vhttps://github.com/palewire/nicar2011
p287
sg12
g13
(S'\x07\xdb\x02\x16\n":\x00\x00\x00'
p288
tp289
Rp290
sg17
I00
sg18
Vnicar2011
p291
sg20
g13
(S"\x07\xdb\x02\x16\x0b'3\x00\x00\x00"
p292
tp293
Rp294
sg24
Vpalewire
p295
sg26
I3
sg27
I0
sg28
I01
sg29
I1
sg30
g31
sg32
I108
ssS'crschmidt/labs-rectifier'
p296
(dp297
g3
I00
sg4
I01
sg5
VMetaCarta Labs Map Rectifier
p298
sg7
VPython
p299
sg9
I01
sg10
Vhttps://github.com/crschmidt/labs-rectifier
p300
sg12
g13
(S'\x07\xda\x01\x0f\n\n\x04\x00\x00\x00'
p301
tp302
Rp303
sg17
I00
sg18
Vlabs-rectifier
p304
sg20
g13
(S'\x07\xda\x01\x0f\n\x11\x16\x00\x00\x00'
p305
tp306
Rp307
sg24
Vcrschmidt
p308
sg26
I9
sg27
I0
sg28
I01
sg29
I4
sg30
Vhttp://labs.metacarta.com/rectifier/
p309
sg32
I292
ssS'robmadole/django-sunset'
p310
(dp311
g3
I00
sg4
I01
sg5
VHandle Django settings in a bit more organized fashion
p312
sg7
VPython
p313
sg9
I01
sg10
Vhttps://github.com/robmadole/django-sunset
p314
sg12
g13
(S'\x07\xda\x0b\x04\r9/\x00\x00\x00'
p315
tp316
Rp317
sg17
I00
sg18
Vdjango-sunset
p318
sg20
g13
(S'\x07\xdb\x03\x1f\x06(/\x00\x00\x00'
p319
tp320
Rp321
sg24
Vrobmadole
p322
sg26
I18
sg27
I1
sg28
I01
sg29
I4
sg30
g31
sg32
I664
ssS'sunlightlabs/django-mediasync'
p323
(dp324
g3
I00
sg4
I01
sg5
VToolkit to simplify static media development and deployment.
p325
sg7
VPython
p326
sg9
I01
sg10
Vhttps://github.com/sunlightlabs/django-mediasync
p327
sg12
g13
(S'\x07\xd9\x01\x19\x0c\x1a8\x00\x00\x00'
p328
tp329
Rp330
sg17
I00
sg18
Vdjango-mediasync
p331
sg20
g13
(S'\x07\xdb\x07\x14\r)\x19\x00\x00\x00'
p332
tp333
Rp334
sg24
Vsunlightlabs
p335
sg26
I147
sg28
I01
sg27
I7
sg136
Vsunlightlabs
p336
sg29
I18
sg30
g31
sg32
I1088
ssS'jorde/django_boilerplate'
p337
(dp338
g3
I00
sg4
I01
sg5
VSimple Django project boilerplate
p339
sg7
VPython
p340
sg9
I01
sg10
Vhttps://github.com/jorde/django_boilerplate
p341
sg12
g13
(S'\x07\xdb\x02\x1b\x057\x15\x00\x00\x00'
p342
tp343
Rp344
sg17
I00
sg18
Vdjango_boilerplate
p345
sg20
g13
(S'\x07\xdb\x03\x05\x06\x08\x02\x00\x00\x00'
p346
tp347
Rp348
sg24
Vjorde
p349
sg26
I11
sg27
I0
sg28
I01
sg29
I3
sg30
g31
sg32
I564
ssS'flaptor/django-indextank-py-demo'
p350
(dp351
g3
I00
sg4
I01
sg5
Vpython-django application to trye indextank search engine in a couple of seconds
p352
sg7
VPython
p353
sg9
I01
sg10
Vhttps://github.com/flaptor/django-indextank-py-demo
p354
sg12
g13
(S'\x07\xdb\x01\x12\x0c\x138\x00\x00\x00'
p355
tp356
Rp357
sg17
I00
sg18
Vdjango-indextank-py-demo
p358
sg20
g13
(S'\x07\xdb\x01\x14\x0b"0\x00\x00\x00'
p359
tp360
Rp361
sg24
Vflaptor
p362
sg26
I5
sg28
I01
sg27
I0
sg136
Vflaptor
p363
sg29
I3
sg30
Vhttp://www.indextank.com
p364
sg32
I564
ssS'dokterbob/django-newsletter'
p365
(dp366
g3
I00
sg4
I00
sg5
VAn email newsletter application for the Django web application framework, including an extended admin interface, web (un)subscription, dynamic e-mail templates, an archive and HTML email support.
p367
sg7
VPython
p368
sg9
I01
sg10
Vhttps://github.com/dokterbob/django-newsletter
p369
sg30
g31
sg12
g13
(S'\x07\xd9\x06\x10\x023\x14\x00\x00\x00'
p370
tp371
Rp372
sg17
I00
sg18
Vdjango-newsletter
p373
sg20
g13
(S'\x07\xdb\t\x1a\x055-\x00\x00\x00'
p374
tp375
Rp376
sg24
Vdokterbob
p377
sg26
I63
sS'integrate_branch'
p378
Vmaster
p379
sg27
I7
sg28
I01
sg29
I12
sS'master_branch'
p380
Vmaster
p381
sg32
I136
ssS'jarv/wordconfuse'
p382
(dp383
g3
I00
sg4
I01
sg5
VDjango 1.3 / JQuery word quiz app
p384
sg7
VPython
p385
sg9
I01
sg10
Vhttps://github.com/jarv/wordconfuse
p386
sg12
g13
(S'\x07\xdb\t\x1e\x149"\x00\x00\x00'
p387
tp388
Rp389
sg17
I00
sg18
Vwordconfuse
p390
sg20
g13
(S'\x07\xdb\n\x0f\t+3\x00\x00\x00'
p391
tp392
Rp393
sg24
Vjarv
p394
sg26
I8
sg27
I1
sg28
I01
sg29
I1
sg30
Vhttp://jarv.org
p395
sg32
I21704
ssS'66laps/django-4store'
p396
(dp397
g3
I00
sg4
I01
sg5
VA small Django application that makes developing with the 4Store RDF database easier.
p398
sg7
VPython
p399
sg9
I01
sg10
Vhttps://github.com/66laps/django-4store
p400
sg12
g13
(S'\x07\xdb\x01\x14\x0c\x1e\x1c\x00\x00\x00'
p401
tp402
Rp403
sg17
I00
sg18
Vdjango-4store
p404
sg20
g13
(S'\x07\xdb\x01\x1a\x03*,\x00\x00\x00'
p405
tp406
Rp407
sg24
V66laps
p408
sg26
I8
sg27
I0
sg28
I01
sg29
I3
sg30
Vhttp://developer.66laps.com
p409
sg32
I892
ssS'yeleman/nosms'
p410
(dp411
g3
I00
sg4
I01
sg5
VMinimalistic SMS capabilities for Django backed by Kannel or Gammu
p412
sg7
VPython
p413
sg9
I01
sg10
Vhttps://github.com/yeleman/nosms
p414
sg12
g13
(S'\x07\xdb\x06\x1b\x08\x123\x00\x00\x00'
p415
tp416
Rp417
sg17
I00
sg18
Vnosms
p418
sg20
g13
(S'\x07\xdb\x0c\t\x01 2\x00\x00\x00'
p419
tp420
Rp421
sg24
Vyeleman
p422
sg26
I1
sg28
I01
sg27
I0
sg136
Vyeleman
p423
sg29
I1
sg30
g31
sg32
I444
ssS'IanLawrence/InnovationManagement'
p424
(dp425
g3
I00
sg4
I01
sg5
VAssess projects automatically for their return on social investment
p426
sg7
VJavaScript
p427
sg9
I01
sg10
Vhttps://github.com/IanLawrence/InnovationManagement
p428
sg12
g13
(S'\x07\xdb\x04\x17\x08&\x1d\x00\x00\x00'
p429
tp430
Rp431
sg17
I00
sg18
VInnovationManagement
p432
sg20
g13
(S'\x07\xdb\x05\x14\x0b\x15\r\x00\x00\x00'
p433
tp434
Rp435
sg24
VIanLawrence
p436
sg26
I2
sg27
I0
sg28
I01
sg29
I1
sg30
Vhttp://ianlawrence.info/random-stuff/evaluating-projects-for-their-return-on-social-investment
p437
sg32
I3400
ssS'jaddison/django-cachebuster'
p438
(dp439
g3
I00
sg4
I00
sg5
VDjango 1.3 ready web browser cache busting app
p440
sg7
VPython
p441
sg9
I01
sg10
Vhttps://github.com/jaddison/django-cachebuster
p442
sg12
g13
(S'\x07\xdb\x03\x14\x112-\x00\x00\x00'
p443
tp444
Rp445
sg17
I00
sg18
Vdjango-cachebuster
p446
sg20
g13
(S'\x07\xdb\x08\x1e\x14\x13\x11\x00\x00\x00'
p447
tp448
Rp449
sg24
Vjaddison
p450
sg26
I34
sg27
I0
sg28
I01
sg29
I4
sg30
g31
sg32
I788
ssS'ridethepony/django-fiber-example'
p451
(dp452
g3
I00
sg4
I01
sg5
VAn example project using Django Fiber that will run out-of-the-box
p453
sg7
VPython
p454
sg9
I01
sg10
Vhttps://github.com/ridethepony/django-fiber-example
p455
sg12
g13
(S'\x07\xdb\x06\x08\x05\x1d\x17\x00\x00\x00'
p456
tp457
Rp458
sg17
I00
sg18
Vdjango-fiber-example
p459
sg20
g13
(S'\x07\xdb\x0b\x08\t\x1b\t\x00\x00\x00'
p460
tp461
Rp462
sg24
Vridethepony
p463
sg26
I15
sg28
I01
sg27
I2
sg136
Vridethepony
p464
sg29
I5
sg30
Vhttp://ridethepony.org/
p465
sg32
I124
ssS'bartTC/django-attachments'
p466
(dp467
g3
I00
sg4
I01
sg5
VA generic Django application to attach Files (Attachments) to any model.
p468
sg7
VPython
p469
sg9
I01
sg10
Vhttps://github.com/bartTC/django-attachments
p470
sg12
g13
(S'\x07\xd9\x05\x07\x0e\x1a4\x00\x00\x00'
p471
tp472
Rp473
sg17
I00
sg18
Vdjango-attachments
p474
sg20
g13
(S'\x07\xda\x06\x1c\x05\x1c3\x00\x00\x00'
p475
tp476
Rp477
sg24
VbartTC
p478
sg26
I90
sg27
I1
sg28
I01
sg29
I21
sg30
Vhttp://www.mahner.org/
p479
sg32
I1447
ssS'spiralsyzygy/burnerspace'
p480
(dp481
g3
I00
sg4
I01
sg5
VCommunity Directed Social Network for the Burner Community
p482
sg7
VPython
p483
sg9
I01
sg10
Vhttps://github.com/spiralsyzygy/burnerspace
p484
sg12
g13
(S'\x07\xdb\x03\x18\x0e"\'\x00\x00\x00'
p485
tp486
Rp487
sg17
I00
sg18
Vburnerspace
p488
sg20
g13
(S'\x07\xdb\x07\x1a\x15\t\x1f\x00\x00\x00'
p489
tp490
Rp491
sg24
Vspiralsyzygy
p492
sg26
I2
sg27
I0
sg28
I01
sg29
I2
sg30
Vburnerspace.com
p493
sg32
I144
ssS'trey/chiplog'
p494
(dp495
g3
I00
sg4
I01
sg5
VA personal journal application written in Django. You need this.
p496
sg7
VJavaScript
p497
sg9
I01
sg10
Vhttps://github.com/trey/chiplog
p498
sg12
g13
(S'\x07\xd8\x06\x1e\x13*6\x00\x00\x00'
p499
tp500
Rp501
sg17
I00
sg18
Vchiplog
p502
sg20
g13
(S'\x07\xd9\x04\x10\x13\x1e\x15\x00\x00\x00'
p503
tp504
Rp505
sg24
Vtrey
p506
sg26
I41
sg27
I38
sg28
I01
sg29
I4
sg30
Vhttp://trey.github.com/chiplog
p507
sg32
I332
ssS'borismus/CrowdForge'
p508
(dp509
g3
I00
sg4
I01
sg5
VDjango framework for crowdsourcing complex tasks using MTurk
p510
sg7
VPython
p511
sg9
I01
sg10
Vhttps://github.com/borismus/CrowdForge
p512
sg12
g13
(S'\x07\xdb\x02\x01\x0c\x10\x13\x00\x00\x00'
p513
tp514
Rp515
sg17
I00
sg18
VCrowdForge
p516
sg20
g13
(S'\x07\xdb\x03\x12\x11%\x19\x00\x00\x00'
p517
tp518
Rp519
sg24
Vborismus
p520
sg26
I18
sg27
I1
sg28
I01
sg29
I4
sg30
Vhttp://smus.com/crowdforge
p521
sg32
I632
ssS'naltimari/django-swfupload-samples'
p522
(dp523
g3
I00
sg4
I01
sg5
VDjango app to run SWFUpload samples
p524
sg7
VPython
p525
sg9
I01
sg10
Vhttps://github.com/naltimari/django-swfupload-samples
p526
sg12
g13
(S'\x07\xd9\x05\x15\x14\x15#\x00\x00\x00'
p527
tp528
Rp529
sg17
I00
sg18
Vdjango-swfupload-samples
p530
sg20
g13
(S'\x07\xd9\x05\x1d\x14\t\x1c\x00\x00\x00'
p531
tp532
Rp533
sg24
Vnaltimari
p534
sg26
I3
sg378
Vadmin
p535
sg27
I1
sg28
I01
sg29
I3
sg30
g31
sg32
I1024
ssS'kevinbond/mysite'
p536
(dp537
g3
I00
sg4
I01
sg5
VThis is the directory for Django - a Python framework
p538
sg7
VPython
p539
sg9
I01
sg10
Vhttps://github.com/kevinbond/mysite
p540
sg12
g13
(S'\x07\xdb\t\x10\x0e(:\x00\x00\x00'
p541
tp542
Rp543
sg17
I00
sg18
Vmysite
p544
sg20
g13
(S'\x07\xdb\t\x14\r\x1c-\x00\x00\x00'
p545
tp546
Rp547
sg24
Vkevinbond
p548
sg26
I1
sg27
I0
sg28
I01
sg29
I1
sg30
g31
sg32
I184
ssS'phuihock/django-livefyre'
p549
(dp550
g3
I00
sg4
I01
sg5
VMakes Livefyre integration less painful, hopefully.
p551
sg7
VPython
p552
sg9
I01
sg10
Vhttps://github.com/phuihock/django-livefyre
p553
sg12
g13
(S'\x07\xdb\x07\x04\x08#\x18\x00\x00\x00'
p554
tp555
Rp556
sg17
I00
sg18
Vdjango-livefyre
p557
sg20
g13
(S'\x07\xdb\x07\x07\x04%\x15\x00\x00\x00'
p558
tp559
Rp560
sg24
Vphuihock
p561
sg26
I2
sg27
I0
sg28
I01
sg29
I1
sg30
g31
sg32
I192
ssS'jamslevy/django-mygengo'
p562
(dp563
g3
I00
sg4
I01
sg5
VThis Django plugin integrates with the myGengo API to offer low-cost, high-quality translation. 
p564
sg7
VPython
p565
sg9
I01
sg10
Vhttps://github.com/jamslevy/django-mygengo
p566
sg12
g13
(S'\x07\xdb\x01\x0e\x0f\x12 \x00\x00\x00'
p567
tp568
Rp569
sg17
I00
sg18
Vdjango-mygengo
p570
sg20
g13
(S'\x07\xdb\x02\x14\x17\x16\x0e\x00\x00\x00'
p571
tp572
Rp573
sg24
Vjamslevy
p574
sg26
I3
sg27
I0
sg28
I01
sg29
I2
sg30
Vhttp://djangomygengo.appspot.com
p575
sg32
I176
ssS'cloudbuilders/djeep'
p576
(dp577
g3
I00
sg4
I01
sg5
Vsimple pxe bootstrapping
p578
sg7
VPython
p579
sg9
I01
sg10
Vhttps://github.com/cloudbuilders/djeep
p580
sg30
g31
sg12
g13
(S"\x07\xdb\x06\x10\x0e'(\x00\x00\x00"
p581
tp582
Rp583
sg17
I00
sg18
Vdjeep
p584
sg20
g13
(S'\x07\xdb\t\x05\x02+\x18\x00\x00\x00'
p585
tp586
Rp587
sg24
Vcloudbuilders
p588
sg26
I11
sg28
I01
sg27
I2
sg136
Vcloudbuilders
p589
sg29
I6
sg380
Vmaster
p590
sg32
I252
ssS'newsapps/django-boundaryservice'
p591
(dp592
g3
I00
sg4
I01
sg5
VA ready-to-deploy system for aggregating regional boundary data (from shapefiles) and republishing that data via a RESTful JSON API.
p593
sg7
VPython
p594
sg9
I01
sg10
Vhttps://github.com/newsapps/django-boundaryservice
p595
sg12
g13
(S'\x07\xdb\x05\x0b\x12\x05\x1c\x00\x00\x00'
p596
tp597
Rp598
sg17
I00
sg18
Vdjango-boundaryservice
p599
sg20
g13
(S'\x07\xdb\x0c\x0c\x07;:\x00\x00\x00'
p600
tp601
Rp602
sg24
Vnewsapps
p603
sg26
I35
sg28
I01
sg27
I20
sg136
Vnewsapps
p604
sg29
I9
sg30
Vhttp://blog.apps.chicagotribune.com/
p605
sg32
I160
ssS'dstufft/django-postmark'
p606
(dp607
g3
I00
sg4
I01
sg5
VDjango EmailBackend and Models/Views for integrating with Postmark
p608
sg7
VPython
p609
sg9
I01
sg10
Vhttps://github.com/dstufft/django-postmark
p610
sg12
g13
(S'\x07\xdb\x05\x17\x0f-3\x00\x00\x00'
p611
tp612
Rp613
sg17
I00
sg18
Vdjango-postmark
p614
sg20
g13
(S'\x07\xdb\x07\r\x08\x1f.\x00\x00\x00'
p615
tp616
Rp617
sg24
Vdstufft
p618
sg26
I19
sg27
I5
sg28
I01
sg29
I14
sg30
g31
sg32
I176
ssS'crschmidt/olhttp'
p619
(dp620
g3
I00
sg4
I01
sg5
g31
sg7
VPython
p621
sg9
I01
sg10
Vhttps://github.com/crschmidt/olhttp
p622
sg12
g13
(S'\x07\xdb\x08\x08\x16$\x0f\x00\x00\x00'
p623
tp624
Rp625
sg17
I00
sg18
Volhttp
p626
sg20
g13
(S'\x07\xdb\t\x11\x0b\x14 \x00\x00\x00'
p627
tp628
Rp629
sg24
Vcrschmidt
p630
sg26
I11
sg27
I0
sg28
I01
sg29
I5
sg30
g31
sg32
I120
ssS'yourcelf/occupydatatweets'
p631
(dp632
g3
I00
sg4
I01
sg5
VA first stab at a API for occupy data tweets, in Django
p633
sg7
VPython
p634
sg9
I01
sg10
Vhttps://github.com/yourcelf/occupydatatweets
p635
sg12
g13
(S'\x07\xdb\x0c\n\x08\x1d#\x00\x00\x00'
p636
tp637
Rp638
sg17
I00
sg18
Voccupydatatweets
p639
sg20
g13
(S'\x07\xdb\x0c\x10\n\x13\x19\x00\x00\x00'
p640
tp641
Rp642
sg24
Vyourcelf
p643
sg26
I1
sg27
I0
sg28
I01
sg29
I1
sg30
g31
sg32
I244
ssS'Almad/django-photologue'
p644
(dp645
g3
I00
sg4
I01
sg5
VPrivate import of google-code repository
p646
sg9
I01
sg10
Vhttps://github.com/Almad/django-photologue
p647
sg12
g13
(S'\x07\xd9\x08\x16\x065 \x00\x00\x00'
p648
tp649
Rp650
sg17
I00
sg18
Vdjango-photologue
p651
sg20
g13
(S'\x07\xd9\x08\x16\x07\x12\x1f\x00\x00\x00'
p652
tp653
Rp654
sg24
VAlmad
p655
sg26
I1
sg27
I0
sg28
I01
sg29
I1
sg30
Vhttp://code.google.com/p/django-photologue/
p656
sg32
I0
ssS'rossp/django-helpdesk'
p657
(dp658
g3
I00
sg4
I01
sg5
VA Django application to manage tickets for an internal helpdesk. Formerly known as Jutda Helpdesk.
p659
sg7
VPython
p660
sg9
I01
sg10
Vhttps://github.com/rossp/django-helpdesk
p661
sg12
g13
(S'\x07\xda\n\r\x11;\t\x00\x00\x00'
p662
tp663
Rp664
sg17
I00
sg18
Vdjango-helpdesk
p665
sg20
g13
(S'\x07\xdb\x0b\x07\x164\x08\x00\x00\x00'
p666
tp667
Rp668
sg24
Vrossp
p669
sg26
I187
sg27
I26
sg28
I01
sg29
I39
sg30
g31
sg32
I256
ssS'derferman/stashboard2'
p670
(dp671
g3
I00
sg4
I01
sg5
VA Stashboard rewrite using Django
p672
sg7
VPython
p673
sg9
I01
sg10
Vhttps://github.com/derferman/stashboard2
p674
sg12
g13
(S'\x07\xdb\x02\x16\x14\x194\x00\x00\x00'
p675
tp676
Rp677
sg17
I00
sg18
Vstashboard2
p678
sg20
g13
(S'\x07\xdb\x02\x16\x16\x1c\x1e\x00\x00\x00'
p679
tp680
Rp681
sg24
Vderferman
p682
sg26
I3
sg27
I0
sg28
I01
sg29
I2
sg30
Vstashboard.org
p683
sg32
I780
ssS'bueda/django-boilerplate'
p684
(dp685
g3
I00
sg4
I01
sg5
V A standard layout for Django apps
p686
sg7
VPython
p687
sg9
I01
sg10
Vhttps://github.com/bueda/django-boilerplate
p688
sg12
g13
(S'\x07\xda\x0b\x0c\x15\x15)\x00\x00\x00'
p689
tp690
Rp691
sg17
I00
sg18
Vdjango-boilerplate
p692
sg20
g13
(S'\x07\xdb\x04\x1a\n\x07\x15\x00\x00\x00'
p693
tp694
Rp695
sg24
Vbueda
p696
sg26
I30
sg28
I01
sg27
I1
sg136
Vbueda
p697
sg29
I3
sg30
g31
sg32
I900
ssS'jsled/brew-journal'
p698
(dp699
g3
I00
sg4
I01
sg5
Vhomebrew journaling
p700
sg7
VPython
p701
sg9
I01
sg10
Vhttps://github.com/jsled/brew-journal
p702
sg12
g13
(S'\x07\xd9\x03\x11\x15 2\x00\x00\x00'
p703
tp704
Rp705
sg17
I00
sg18
Vbrew-journal
p706
sg20
g13
(S'\x07\xdb\x05\x15\x0847\x00\x00\x00'
p707
tp708
Rp709
sg24
Vjsled
p710
sg26
I10
sg27
I0
sg28
I01
sg29
I2
sg30
Vhttp://www.brew-journal.com/
p711
sg32
I972
ssS'haifeng/secretapp'
p712
(dp713
g3
I01
sg4
I01
sg5
VThe source for 
p714
sg7
VPython
p715
sg9
I01
sg10
Vhttps://github.com/haifeng/secretapp
p716
sg12
g13
(S'\x07\xda\n\x0e\t\x04 \x00\x00\x00'
p717
tp718
Rp719
sg17
I00
sg18
Vsecretapp
p720
sg20
g13
(S'\x07\xda\n\x0b\x08\x08\x10\x00\x00\x00'
p721
tp722
Rp723
sS'source'
p724
Vtimjdavey/secretapp
p725
sg26
I1
sS'parent'
p726
Vtimjdavey/secretapp
p727
sg24
Vhaifeng
p728
sg28
I00
sg29
I0
sg30
g31
sg27
I0
sg32
I5568
ssS'dysolution/Twickr'
p729
(dp730
g3
I00
sg4
I01
sg5
VA simple demonstration that ties together the Twitter and Flickr APIs.
p731
sg7
VPython
p732
sg9
I01
sg10
Vhttps://github.com/dysolution/Twickr
p733
sg12
g13
(S'\x07\xdb\x08\x11\x08\x037\x00\x00\x00'
p734
tp735
Rp736
sg17
I00
sg18
VTwickr
p737
sg20
g13
(S'\x07\xdb\x08\x16\x0f\x02\x11\x00\x00\x00'
p738
tp739
Rp740
sg24
Vdysolution
p741
sg26
I2
sg27
I0
sg28
I01
sg29
I1
sg30
g31
sg32
I256
ssS'justquick/jutdahelpdesk'
p742
(dp743
g3
I00
sg4
I01
sg5
VMy dev fork of the jutda helpdesk
p744
sg7
VJavaScript
p745
sg9
I01
sg10
Vhttps://github.com/justquick/jutdahelpdesk
p746
sg12
g13
(S'\x07\xda\x03\x04\x15\x1f4\x00\x00\x00'
p747
tp748
Rp749
sg17
I00
sg18
Vjutdahelpdesk
p750
sg20
g13
(S'\x07\xda\x03\x04\x15"\x15\x00\x00\x00'
p751
tp752
Rp753
sg24
Vjustquick
p754
sg26
I3
sg27
I0
sg28
I01
sg29
I2
sg30
Vhttp://www.jutdahelpdesk.com
p755
sg32
I296
ssS'edsu/id'
p756
(dp757
g3
I00
sg4
I01
sg5
VLCSH SKOS webapp
p758
sg7
VPython
p759
sg9
I01
sg10
Vhttps://github.com/edsu/id
p760
sg12
g13
(S'\x07\xdb\x08\x0b\x15\x123\x00\x00\x00'
p761
tp762
Rp763
sg17
I00
sg18
Vid
p764
sg20
g13
(S'\x07\xdb\x08\x0b\x15\x13\x1d\x00\x00\x00'
p765
tp766
Rp767
sg24
Vedsu
p768
sg26
I1
sg27
I0
sg28
I01
sg29
I1
sg30
g31
sg32
I132
ssS'codeforamerica/open_data_catalog'
p769
(dp770
g3
I00
sg4
I01
sg5
VA Django web application to help cities easily create an open data catalog.
p771
sg7
VJavaScript
p772
sg9
I01
sg10
Vhttps://github.com/codeforamerica/open_data_catalog
p773
sg12
g13
(S'\x07\xdb\x08\x18\x00\x0c\x17\x00\x00\x00'
p774
tp775
Rp776
sg17
I00
sg18
Vopen_data_catalog
p777
sg20
g13
(S'\x07\xdb\n\x1f\x0b-\x19\x00\x00\x00'
p778
tp779
Rp780
sg24
Vcodeforamerica
p781
sg26
I8
sg28
I01
sg27
I0
sg136
Vcodeforamerica
p782
sg29
I4
sg30
g31
sg32
I204
ssS'bartTC/django-frontendadmin'
p783
(dp784
g3
I00
sg4
I01
sg5
Vdjango-frontendadmin is a set of templatetags to allow an easy and unobstrusive way to edit model-data in the frontend of your page. See wiki for screencast!
p785
sg7
VPython
p786
sg9
I01
sg10
Vhttps://github.com/bartTC/django-frontendadmin
p787
sg12
g13
(S'\x07\xd8\n\x02\t\x1b\x00\x00\x00\x00'
p788
tp789
Rp790
sg17
I00
sg18
Vdjango-frontendadmin
p791
sg20
g13
(S'\x07\xdb\x0b\x0f\x01\x02(\x00\x00\x00'
p792
tp793
Rp794
sg24
VbartTC
p795
sg26
I155
sg378
Vmaster
p796
sg27
I4
sg28
I01
sg29
I20
sg30
Vhttp://www.mahner.org/
p797
sg32
I4057
ssS'gillesfabio/django-newproject'
p798
(dp799
g3
I00
sg4
I00
sg5
VSkeleton setup to quickly start a Django project.
p800
sg7
VPython
p801
sg9
I00
sg10
Vhttps://github.com/gillesfabio/django-newproject
p802
sg12
g13
(S'\x07\xda\x05\x07\r\x04\x17\x00\x00\x00'
p803
tp804
Rp805
sg17
I00
sg18
Vdjango-newproject
p806
sg20
g13
(S'\x07\xda\x05\x16\x02,6\x00\x00\x00'
p807
tp808
Rp809
sg24
Vgillesfabio
p810
sg26
I9
sg27
I0
sg28
I01
sg29
I3
sg30
Vhttp://github.com/gillesfabio/django-newproject
p811
sg32
I676
ssS'jgeewax/django-chronograph'
p812
(dp813
g3
I01
sg4
I01
sg726
Vt11e/django-chronograph
p814
sg5
VUNOFFICIAL fork of the django-chronograph project.
p815
sg7
VPython
p816
sg9
I01
sg10
Vhttps://github.com/jgeewax/django-chronograph
p817
sg12
g13
(S"\x07\xda\x03\x0e\t\x02'\x00\x00\x00"
p818
tp819
Rp820
sg17
I00
sg18
Vdjango-chronograph
p821
sg20
g13
(S'\x07\xdb\x05\x12\x0f\x0b\x1f\x00\x00\x00'
p822
tp823
Rp824
sg724
Vt11e/django-chronograph
p825
sg26
I18
sg378
Vmaster
p826
sg24
Vjgeewax
p827
sg28
I01
sg29
I8
sg30
Vhttp://code.google.com/p/django-chronograph/
p828
sg27
I7
sg32
I652
ssS'klipstein/dojango-sample'
p829
(dp830
g3
I00
sg4
I01
sg5
VA sample application how to use dojango with other reusable apps
p831
sg7
VPython
p832
sg9
I01
sg10
Vhttps://github.com/klipstein/dojango-sample
p833
sg12
g13
(S'\x07\xda\x02\n\x0f\x03(\x00\x00\x00'
p834
tp835
Rp836
sg17
I00
sg18
Vdojango-sample
p837
sg20
g13
(S'\x07\xda\x0c\x19\x0e\n(\x00\x00\x00'
p838
tp839
Rp840
sg24
Vklipstein
p841
sg26
I15
sg27
I2
sg28
I01
sg29
I1
sg30
Vhttp://code.google.com/p/dojango/
p842
sg32
I1612
ssS'cfdrake/hemingway'
p843
(dp844
g3
I00
sg4
I01
sg5
VLightweight Django blogging app.
p845
sg7
VPython
p846
sg9
I01
sg10
Vhttps://github.com/cfdrake/hemingway
p847
sg12
g13
(S'\x07\xdb\n\x08\x0e\x0b#\x00\x00\x00'
p848
tp849
Rp850
sg17
I00
sg18
Vhemingway
p851
sg20
g13
(S'\x07\xdb\n\x08\x0e\x0b3\x00\x00\x00'
p852
tp853
Rp854
sg24
Vcfdrake
p855
sg26
I1
sg27
I0
sg28
I01
sg29
I1
sg30
g31
sg32
I96
ss.